; Function Attrs: mustprogress noreturn uwtable
define void @_ZN12FilterPlugin17wrongActionCalledEPK7QAction(ptr noundef %0) local_unnamed_addr #14 align 2 personality ptr @__gxx_personality_v0 {
  %2 = alloca %class.QString, align 8
  %3 = alloca %class.QString, align 8
  %4 = alloca %class.QString, align 8
  %5 = tail call ptr @__cxa_allocate_exception(i64 24) #19
  invoke void @_ZNK7QAction4textEv(ptr dead_on_unwind nonnull writable sret(%class.QString) align 8 %4, ptr noundef nonnull align 8 dereferenceable(16) %0)
          to label %6 unwind label %_ZN7QStringD2Ev.exit23.thread

6:                                                ; preds = %1
  invoke void @_ZN7QString15fromUtf8_helperEPKci(ptr dead_on_unwind nonnull writable sret(%class.QString) align 8 %3, ptr noundef nonnull @.str.70, i32 noundef 38)
          to label %.noexc unwind label %13

.noexc:                                           ; preds = %6
  %7 = invoke noundef nonnull align 8 dereferenceable(8) ptr @_ZN7QString6appendERKS_(ptr noundef nonnull align 8 dereferenceable(8) %3, ptr noundef nonnull align 8 dereferenceable(8) %4)
          to label %_ZplPKcRK7QString.exit unwind label %8

8:                                                ; preds = %.noexc
  %9 = landingpad { ptr, i32 }
          cleanup
  call void @_ZN7QStringD2Ev(ptr noundef nonnull align 8 dereferenceable(8) %3) #19
  br label %.body

_ZplPKcRK7QString.exit:                           ; preds = %.noexc
  invoke void @_ZplRK7QStringPKc(ptr dead_on_unwind nonnull writable sret(%class.QString) align 8 %2, ptr noundef nonnull align 8 dereferenceable(8) %3, ptr noundef nonnull @.str.71)
          to label %10 unwind label %15

10:                                               ; preds = %_ZplPKcRK7QString.exit
  invoke void @_ZN11MLExceptionC2ERK7QString(ptr noundef nonnull align 8 dereferenceable(24) %5, ptr noundef nonnull align 8 dereferenceable(8) %2)
          to label %11 unwind label %17

11:                                               ; preds = %10
  invoke void @__cxa_throw(ptr nonnull %5, ptr nonnull @_ZTI11MLException, ptr nonnull @_ZN11MLExceptionD2Ev) #23
          to label %33 unwind label %17

_ZN7QStringD2Ev.exit23.thread:                    ; preds = %1
  %12 = landingpad { ptr, i32 }
          cleanup
  br label %31

13:                                               ; preds = %6
  %14 = landingpad { ptr, i32 }
          cleanup
  br label %.body

15:                                               ; preds = %_ZplPKcRK7QString.exit
  %16 = landingpad { ptr, i32 }
          cleanup
  br label %_ZN7QStringD2Ev.exit

17:                                               ; preds = %11, %10
  %.0 = phi i1 [ false, %11 ], [ true, %10 ]
  %18 = landingpad { ptr, i32 }
          cleanup
  %19 = load ptr, ptr %2, align 8
  %20 = load atomic i32, ptr %19 monotonic, align 4
  switch i32 %20, label %_ZN9QtPrivate8RefCount5derefEv.exit.i [
    i32 0, label %_ZN9QtPrivate8RefCount5derefEv.exit.thread2.i
    i32 -1, label %_ZN7QStringD2Ev.exit
  ]

_ZN9QtPrivate8RefCount5derefEv.exit.i:            ; preds = %17
  %21 = atomicrmw sub ptr %19, i32 1 seq_cst, align 4
  %.not.i = icmp eq i32 %21, 1
  br i1 %.not.i, label %_ZN9QtPrivate8RefCount5derefEv.exit._ZN9QtPrivate8RefCount5derefEv.exit.thread2_crit_edge.i, label %_ZN7QStringD2Ev.exit

_ZN9QtPrivate8RefCount5derefEv.exit._ZN9QtPrivate8RefCount5derefEv.exit.thread2_crit_edge.i: ; preds = %_ZN9QtPrivate8RefCount5derefEv.exit.i
  %.pre.i = load ptr, ptr %2, align 8
  br label %_ZN9QtPrivate8RefCount5derefEv.exit.thread2.i

_ZN9QtPrivate8RefCount5derefEv.exit.thread2.i:    ; preds = %_ZN9QtPrivate8RefCount5derefEv.exit._ZN9QtPrivate8RefCount5derefEv.exit.thread2_crit_edge.i, %17
  %22 = phi ptr [ %.pre.i, %_ZN9QtPrivate8RefCount5derefEv.exit._ZN9QtPrivate8RefCount5derefEv.exit.thread2_crit_edge.i ], [ %19, %17 ]
  call void @_ZN10QArrayData10deallocateEPS_mm(ptr noundef %22, i64 noundef 2, i64 noundef 8) #19
  br label %_ZN7QStringD2Ev.exit

_ZN7QStringD2Ev.exit:                             ; preds = %_ZN9QtPrivate8RefCount5derefEv.exit.thread2.i, %_ZN9QtPrivate8RefCount5derefEv.exit.i, %17, %15
  %.pn = phi { ptr, i32 } [ %16, %15 ], [ %18, %17 ], [ %18, %_ZN9QtPrivate8RefCount5derefEv.exit.i ], [ %18, %_ZN9QtPrivate8RefCount5derefEv.exit.thread2.i ]
  %.1 = phi i1 [ true, %15 ], [ %.0, %17 ], [ %.0, %_ZN9QtPrivate8RefCount5derefEv.exit.i ], [ %.0, %_ZN9QtPrivate8RefCount5derefEv.exit.thread2.i ]
  %23 = load ptr, ptr %3, align 8
  %24 = load atomic i32, ptr %23 monotonic, align 4
  switch i32 %24, label %_ZN9QtPrivate8RefCount5derefEv.exit.i13 [
    i32 0, label %_ZN9QtPrivate8RefCount5derefEv.exit.thread2.i12
    i32 -1, label %.body
  ]

_ZN9QtPrivate8RefCount5derefEv.exit.i13:          ; preds = %_ZN7QStringD2Ev.exit
  %25 = atomicrmw sub ptr %23, i32 1 seq_cst, align 4
  %.not.i14 = icmp eq i32 %25, 1
  br i1 %.not.i14, label %_ZN9QtPrivate8RefCount5derefEv.exit._ZN9QtPrivate8RefCount5derefEv.exit.thread2_crit_edge.i15, label %.body

_ZN9QtPrivate8RefCount5derefEv.exit._ZN9QtPrivate8RefCount5derefEv.exit.thread2_crit_edge.i15: ; preds = %_ZN9QtPrivate8RefCount5derefEv.exit.i13
  %.pre.i16 = load ptr, ptr %3, align 8
  br label %_ZN9QtPrivate8RefCount5derefEv.exit.thread2.i12

_ZN9QtPrivate8RefCount5derefEv.exit.thread2.i12:  ; preds = %_ZN9QtPrivate8RefCount5derefEv.exit._ZN9QtPrivate8RefCount5derefEv.exit.thread2_crit_edge.i15, %_ZN7QStringD2Ev.exit
  %26 = phi ptr [ %.pre.i16, %_ZN9QtPrivate8RefCount5derefEv.exit._ZN9QtPrivate8RefCount5derefEv.exit.thread2_crit_edge.i15 ], [ %23, %_ZN7QStringD2Ev.exit ]
  call void @_ZN10QArrayData10deallocateEPS_mm(ptr noundef %26, i64 noundef 2, i64 noundef 8) #19
  br label %.body

.body:                                            ; preds = %_ZN9QtPrivate8RefCount5derefEv.exit.thread2.i12, %_ZN9QtPrivate8RefCount5derefEv.exit.i13, %_ZN7QStringD2Ev.exit, %13, %8
  %.pn.pn = phi { ptr, i32 } [ %14, %13 ], [ %9, %8 ], [ %.pn, %_ZN7QStringD2Ev.exit ], [ %.pn, %_ZN9QtPrivate8RefCount5derefEv.exit.i13 ], [ %.pn, %_ZN9QtPrivate8RefCount5derefEv.exit.thread2.i12 ]
  %.2 = phi i1 [ true, %13 ], [ true, %8 ], [ %.1, %_ZN7QStringD2Ev.exit ], [ %.1, %_ZN9QtPrivate8RefCount5derefEv.exit.i13 ], [ %.1, %_ZN9QtPrivate8RefCount5derefEv.exit.thread2.i12 ]
  %27 = load ptr, ptr %4, align 8
  %28 = load atomic i32, ptr %27 monotonic, align 4
  switch i32 %28, label %_ZN9QtPrivate8RefCount5derefEv.exit.i19 [
    i32 0, label %_ZN9QtPrivate8RefCount5derefEv.exit.thread2.i18
    i32 -1, label %_ZN7QStringD2Ev.exit23
  ]

_ZN9QtPrivate8RefCount5derefEv.exit.i19:          ; preds = %.body
  %29 = atomicrmw sub ptr %27, i32 1 seq_cst, align 4
  %.not.i20 = icmp eq i32 %29, 1
  br i1 %.not.i20, label %_ZN9QtPrivate8RefCount5derefEv.exit._ZN9QtPrivate8RefCount5derefEv.exit.thread2_crit_edge.i21, label %_ZN7QStringD2Ev.exit23

_ZN9QtPrivate8RefCount5derefEv.exit._ZN9QtPrivate8RefCount5derefEv.exit.thread2_crit_edge.i21: ; preds = %_ZN9QtPrivate8RefCount5derefEv.exit.i19
  %.pre.i22 = load ptr, ptr %4, align 8
  br label %_ZN9QtPrivate8RefCount5derefEv.exit.thread2.i18

_ZN9QtPrivate8RefCount5derefEv.exit.thread2.i18:  ; preds = %_ZN9QtPrivate8RefCount5derefEv.exit._ZN9QtPrivate8RefCount5derefEv.exit.thread2_crit_edge.i21, %.body
  %30 = phi ptr [ %.pre.i22, %_ZN9QtPrivate8RefCount5derefEv.exit._ZN9QtPrivate8RefCount5derefEv.exit.thread2_crit_edge.i21 ], [ %27, %.body ]
  call void @_ZN10QArrayData10deallocateEPS_mm(ptr noundef %30, i64 noundef 2, i64 noundef 8) #19
  br i1 %.2, label %31, label %32

_ZN7QStringD2Ev.exit23:                           ; preds = %_ZN9QtPrivate8RefCount5derefEv.exit.i19, %.body
  br i1 %.2, label %31, label %32

31:                                               ; preds = %_ZN9QtPrivate8RefCount5derefEv.exit.thread2.i18, %_ZN7QStringD2Ev.exit23.thread, %_ZN7QStringD2Ev.exit23
  %.pn.pn.pn27 = phi { ptr, i32 } [ %12, %_ZN7QStringD2Ev.exit23.thread ], [ %.pn.pn, %_ZN7QStringD2Ev.exit23 ], [ %.pn.pn, %_ZN9QtPrivate8RefCount5derefEv.exit.thread2.i18 ]
  call void @__cxa_free_exception(ptr %5) #19
  br label %32

32:                                               ; preds = %_ZN9QtPrivate8RefCount5derefEv.exit.thread2.i18, %_ZN7QStringD2Ev.exit23, %31
  %.pn.pn.pn26 = phi { ptr, i32 } [ %.pn.pn, %_ZN7QStringD2Ev.exit23 ], [ %.pn.pn.pn27, %31 ], [ %.pn.pn, %_ZN9QtPrivate8RefCount5derefEv.exit.thread2.i18 ]
  resume { ptr, i32 } %.pn.pn.pn26

33:                                               ; preds = %11
  unreachable
}